target datalayout = "e-m:e-p270:32:32-p271:32:32-p272:64:64-i64:64-i128:128-f80:128-n8:16:32:64-S128"
target triple = "x86_64-unknown-linux-gnu"

%"class.icu_75::RuleBasedCollator" = type <{ %"class.icu_75::Collator", ptr, ptr, ptr, ptr, %"class.icu_75::Locale", i32, i8, [3 x i8] }>
%"class.icu_75::Collator" = type { %"class.icu_75::UObject" }
%"class.icu_75::UObject" = type { ptr }
%"class.icu_75::Locale" = type <{ %"class.icu_75::UObject", [12 x i8], [6 x i8], [4 x i8], [2 x i8], i32, [4 x i8], ptr, [157 x i8], [3 x i8], ptr, i8, [7 x i8] }>

; Function Attrs: mustprogress uwtable
define void @_ZN6icu_7517RuleBasedCollatorC2ERKS0_(ptr noundef nonnull align 8 dereferenceable(272) %this, ptr noundef nonnull align 8 dereferenceable(272) %other) unnamed_addr #1 align 2 personality ptr @__gxx_personality_v0 {
entry:
  %this.addr = alloca ptr, align 8
  %other.addr = alloca ptr, align 8
  %exn.slot = alloca ptr, align 8
  %ehselector.slot = alloca i32, align 4
  store ptr %this, ptr %this.addr, align 8
  store ptr %other, ptr %other.addr, align 8
  %this1 = load ptr, ptr %this.addr, align 8
  %0 = load ptr, ptr %other.addr, align 8
  call void @_ZN6icu_758CollatorC2ERKS0_(ptr noundef nonnull align 8 dereferenceable(8) %this1, ptr noundef nonnull align 8 dereferenceable(8) %0)
  store ptr getelementptr inbounds ({ [43 x ptr] }, ptr @_ZTVN6icu_7517RuleBasedCollatorE, i32 0, i32 0, i32 2), ptr %this1, align 8
  %data = getelementptr inbounds %"class.icu_75::RuleBasedCollator", ptr %this1, i32 0, i32 1
  %1 = load ptr, ptr %other.addr, align 8
  %data2 = getelementptr inbounds %"class.icu_75::RuleBasedCollator", ptr %1, i32 0, i32 1
  %2 = load ptr, ptr %data2, align 8
  store ptr %2, ptr %data, align 8
  %settings = getelementptr inbounds %"class.icu_75::RuleBasedCollator", ptr %this1, i32 0, i32 2
  %3 = load ptr, ptr %other.addr, align 8
  %settings3 = getelementptr inbounds %"class.icu_75::RuleBasedCollator", ptr %3, i32 0, i32 2
  %4 = load ptr, ptr %settings3, align 8
  store ptr %4, ptr %settings, align 8
  %tailoring = getelementptr inbounds %"class.icu_75::RuleBasedCollator", ptr %this1, i32 0, i32 3
  %5 = load ptr, ptr %other.addr, align 8
  %tailoring4 = getelementptr inbounds %"class.icu_75::RuleBasedCollator", ptr %5, i32 0, i32 3
  %6 = load ptr, ptr %tailoring4, align 8
  store ptr %6, ptr %tailoring, align 8
  %cacheEntry = getelementptr inbounds %"class.icu_75::RuleBasedCollator", ptr %this1, i32 0, i32 4
  %7 = load ptr, ptr %other.addr, align 8
  %cacheEntry5 = getelementptr inbounds %"class.icu_75::RuleBasedCollator", ptr %7, i32 0, i32 4
  %8 = load ptr, ptr %cacheEntry5, align 8
  store ptr %8, ptr %cacheEntry, align 8
  %validLocale = getelementptr inbounds %"class.icu_75::RuleBasedCollator", ptr %this1, i32 0, i32 5
  %9 = load ptr, ptr %other.addr, align 8
  %validLocale6 = getelementptr inbounds %"class.icu_75::RuleBasedCollator", ptr %9, i32 0, i32 5
  invoke void @_ZN6icu_756LocaleC1ERKS0_(ptr noundef nonnull align 8 dereferenceable(217) %validLocale, ptr noundef nonnull align 8 dereferenceable(217) %validLocale6)
          to label %invoke.cont unwind label %lpad

invoke.cont:                                      ; preds = %entry
  %explicitlySetAttributes = getelementptr inbounds %"class.icu_75::RuleBasedCollator", ptr %this1, i32 0, i32 6
  %10 = load ptr, ptr %other.addr, align 8
  %explicitlySetAttributes7 = getelementptr inbounds %"class.icu_75::RuleBasedCollator", ptr %10, i32 0, i32 6
  %11 = load i32, ptr %explicitlySetAttributes7, align 8
  store i32 %11, ptr %explicitlySetAttributes, align 8
  %actualLocaleIsSameAsValid = getelementptr inbounds %"class.icu_75::RuleBasedCollator", ptr %this1, i32 0, i32 7
  %12 = load ptr, ptr %other.addr, align 8
  %actualLocaleIsSameAsValid8 = getelementptr inbounds %"class.icu_75::RuleBasedCollator", ptr %12, i32 0, i32 7
  %13 = load i8, ptr %actualLocaleIsSameAsValid8, align 4
  store i8 %13, ptr %actualLocaleIsSameAsValid, align 4
  %settings9 = getelementptr inbounds %"class.icu_75::RuleBasedCollator", ptr %this1, i32 0, i32 2
  %14 = load ptr, ptr %settings9, align 8
  invoke void @_ZNK6icu_7512SharedObject6addRefEv(ptr noundef nonnull align 8 dereferenceable(24) %14)
          to label %invoke.cont11 unwind label %lpad10

invoke.cont11:                                    ; preds = %invoke.cont
  %cacheEntry12 = getelementptr inbounds %"class.icu_75::RuleBasedCollator", ptr %this1, i32 0, i32 4
  %15 = load ptr, ptr %cacheEntry12, align 8
  invoke void @_ZNK6icu_7512SharedObject6addRefEv(ptr noundef nonnull align 8 dereferenceable(24) %15)
          to label %invoke.cont13 unwind label %lpad10

invoke.cont13:                                    ; preds = %invoke.cont11
  ret void

lpad:                                             ; preds = %entry
  %16 = landingpad { ptr, i32 }
          cleanup
  %17 = extractvalue { ptr, i32 } %16, 0
  store ptr %17, ptr %exn.slot, align 8
  %18 = extractvalue { ptr, i32 } %16, 1
  store i32 %18, ptr %ehselector.slot, align 4
  br label %ehcleanup

lpad10:                                           ; preds = %invoke.cont11, %invoke.cont
  %19 = landingpad { ptr, i32 }
          cleanup
  %20 = extractvalue { ptr, i32 } %19, 0
  store ptr %20, ptr %exn.slot, align 8
  %21 = extractvalue { ptr, i32 } %19, 1
  store i32 %21, ptr %ehselector.slot, align 4
  call void @_ZN6icu_756LocaleD1Ev(ptr noundef nonnull align 8 dereferenceable(217) %validLocale) #10
  br label %ehcleanup

ehcleanup:                                        ; preds = %lpad10, %lpad
  call void @_ZN6icu_758CollatorD2Ev(ptr noundef nonnull align 8 dereferenceable(8) %this1) #10
  br label %eh.resume

eh.resume:                                        ; preds = %ehcleanup
  %exn = load ptr, ptr %exn.slot, align 8
  %sel = load i32, ptr %ehselector.slot, align 4
  %lpad.val = insertvalue { ptr, i32 } poison, ptr %exn, 0
  %lpad.val14 = insertvalue { ptr, i32 } %lpad.val, i32 %sel, 1
  resume { ptr, i32 } %lpad.val14
}