; Function Attrs: mustprogress uwtable
define void @_ZN6icu_7517RuleBasedCollatorC2ERKS0_(ptr noundef nonnull align 8 dereferenceable(272) %this, ptr noundef nonnull align 8 dereferenceable(272) %other) unnamed_addr #1 align 2 personality ptr @__gxx_personality_v0 {
entry:
  tail call void @_ZN6icu_758CollatorC2ERKS0_(ptr noundef nonnull align 8 dereferenceable(8) %this, ptr noundef nonnull align 8 dereferenceable(8) %other)
  store ptr getelementptr inbounds ({ [43 x ptr] }, ptr @_ZTVN6icu_7517RuleBasedCollatorE, i64 0, i32 0, i64 2), ptr %this, align 8
  %data = getelementptr inbounds i8, ptr %this, i64 8
  %data2 = getelementptr inbounds i8, ptr %other, i64 8
  %0 = load ptr, ptr %data2, align 8
  store ptr %0, ptr %data, align 8
  %settings = getelementptr inbounds i8, ptr %this, i64 16
  %settings3 = getelementptr inbounds i8, ptr %other, i64 16
  %1 = load ptr, ptr %settings3, align 8
  store ptr %1, ptr %settings, align 8
  %tailoring = getelementptr inbounds i8, ptr %this, i64 24
  %tailoring4 = getelementptr inbounds i8, ptr %other, i64 24
  %2 = load ptr, ptr %tailoring4, align 8
  store ptr %2, ptr %tailoring, align 8
  %cacheEntry = getelementptr inbounds i8, ptr %this, i64 32
  %cacheEntry5 = getelementptr inbounds i8, ptr %other, i64 32
  %3 = load ptr, ptr %cacheEntry5, align 8
  store ptr %3, ptr %cacheEntry, align 8
  %validLocale = getelementptr inbounds i8, ptr %this, i64 40
  %validLocale6 = getelementptr inbounds i8, ptr %other, i64 40
  invoke void @_ZN6icu_756LocaleC1ERKS0_(ptr noundef nonnull align 8 dereferenceable(217) %validLocale, ptr noundef nonnull align 8 dereferenceable(217) %validLocale6)
          to label %invoke.cont unwind label %lpad

invoke.cont:                                      ; preds = %entry
  %explicitlySetAttributes = getelementptr inbounds i8, ptr %this, i64 264
  %explicitlySetAttributes7 = getelementptr inbounds i8, ptr %other, i64 264
  %4 = load i32, ptr %explicitlySetAttributes7, align 8
  store i32 %4, ptr %explicitlySetAttributes, align 8
  %actualLocaleIsSameAsValid = getelementptr inbounds i8, ptr %this, i64 268
  %actualLocaleIsSameAsValid8 = getelementptr inbounds i8, ptr %other, i64 268
  %5 = load i8, ptr %actualLocaleIsSameAsValid8, align 4
  store i8 %5, ptr %actualLocaleIsSameAsValid, align 4
  %6 = load ptr, ptr %settings, align 8
  invoke void @_ZNK6icu_7512SharedObject6addRefEv(ptr noundef nonnull align 8 dereferenceable(24) %6)
          to label %invoke.cont11 unwind label %lpad10

invoke.cont11:                                    ; preds = %invoke.cont
  %7 = load ptr, ptr %cacheEntry, align 8
  invoke void @_ZNK6icu_7512SharedObject6addRefEv(ptr noundef nonnull align 8 dereferenceable(24) %7)
          to label %invoke.cont13 unwind label %lpad10

invoke.cont13:                                    ; preds = %invoke.cont11
  ret void

lpad:                                             ; preds = %entry
  %8 = landingpad { ptr, i32 }
          cleanup
  br label %ehcleanup

lpad10:                                           ; preds = %invoke.cont11, %invoke.cont
  %9 = landingpad { ptr, i32 }
          cleanup
  tail call void @_ZN6icu_756LocaleD1Ev(ptr noundef nonnull align 8 dereferenceable(217) %validLocale) #17
  br label %ehcleanup

ehcleanup:                                        ; preds = %lpad10, %lpad
  %.pn = phi { ptr, i32 } [ %9, %lpad10 ], [ %8, %lpad ]
  tail call void @_ZN6icu_758CollatorD2Ev(ptr noundef nonnull align 8 dereferenceable(8) %this) #17
  resume { ptr, i32 } %.pn
}